target datalayout = "e-m:e-p270:32:32-p271:32:32-p272:64:64-i64:64-i128:128-f80:128-n8:16:32:64-S128"
target triple = "x86_64-pc-linux-gnu"

%"struct.nix::ParserLocation" = type { i32, i32, i32, i32, i32, i32, i32, i32 }

; Function Attrs: mustprogress nounwind uwtable
define linkonce_odr void @_ZN3nix14ParserLocation5stashEv(ptr noundef nonnull align 4 dereferenceable(32) %0) #2 comdat align 2 {
  %2 = alloca ptr, align 8
  store ptr %0, ptr %2, align 8
  %3 = load ptr, ptr %2, align 8
  %4 = getelementptr inbounds %"struct.nix::ParserLocation", ptr %3, i32 0, i32 0
  %5 = load i32, ptr %4, align 4
  %6 = getelementptr inbounds %"struct.nix::ParserLocation", ptr %3, i32 0, i32 4
  store i32 %5, ptr %6, align 4
  %7 = getelementptr inbounds %"struct.nix::ParserLocation", ptr %3, i32 0, i32 1
  %8 = load i32, ptr %7, align 4
  %9 = getelementptr inbounds %"struct.nix::ParserLocation", ptr %3, i32 0, i32 5
  store i32 %8, ptr %9, align 4
  %10 = getelementptr inbounds %"struct.nix::ParserLocation", ptr %3, i32 0, i32 2
  %11 = load i32, ptr %10, align 4
  %12 = getelementptr inbounds %"struct.nix::ParserLocation", ptr %3, i32 0, i32 6
  store i32 %11, ptr %12, align 4
  %13 = getelementptr inbounds %"struct.nix::ParserLocation", ptr %3, i32 0, i32 3
  %14 = load i32, ptr %13, align 4
  %15 = getelementptr inbounds %"struct.nix::ParserLocation", ptr %3, i32 0, i32 7
  store i32 %14, ptr %15, align 4
  ret void
}

; Function Attrs: mustprogress uwtable
define internal void @_ZN3nixL9adjustLocEPNS_14ParserLocationEPKcm(ptr noundef %0, ptr noundef %1, i64 noundef %2) #5 {
  %4 = alloca ptr, align 8
  %5 = alloca ptr, align 8
  %6 = alloca i64, align 8
  %7 = alloca i64, align 8
  store ptr %0, ptr %4, align 8
  store ptr %1, ptr %5, align 8
  store i64 %2, ptr %6, align 8
  %8 = load ptr, ptr %4, align 8
  call void @_ZN3nix14ParserLocation5stashEv(ptr noundef nonnull align 4 dereferenceable(32) %8)
  %9 = load ptr, ptr %4, align 8
  %10 = getelementptr inbounds %"struct.nix::ParserLocation", ptr %9, i32 0, i32 2
  %11 = load i32, ptr %10, align 4
  %12 = load ptr, ptr %4, align 8
  %13 = getelementptr inbounds %"struct.nix::ParserLocation", ptr %12, i32 0, i32 0
  store i32 %11, ptr %13, align 4
  %14 = load ptr, ptr %4, align 8
  %15 = getelementptr inbounds %"struct.nix::ParserLocation", ptr %14, i32 0, i32 3
  %16 = load i32, ptr %15, align 4
  %17 = load ptr, ptr %4, align 8
  %18 = getelementptr inbounds %"struct.nix::ParserLocation", ptr %17, i32 0, i32 1
  store i32 %16, ptr %18, align 4
  store i64 0, ptr %7, align 8
  br label %19

19:                                               ; preds = %52, %3
  %20 = load i64, ptr %7, align 8
  %21 = load i64, ptr %6, align 8
  %22 = icmp ult i64 %20, %21
  br i1 %22, label %23, label %55

23:                                               ; preds = %19
  %24 = load ptr, ptr %5, align 8
  %25 = getelementptr inbounds i8, ptr %24, i32 1
  store ptr %25, ptr %5, align 8
  %26 = load i8, ptr %24, align 1
  %27 = sext i8 %26 to i32
  switch i32 %27, label %46 [
    i32 13, label %28
    i32 10, label %39
  ]

28:                                               ; preds = %23
  %29 = load ptr, ptr %5, align 8
  %30 = load i8, ptr %29, align 1
  %31 = sext i8 %30 to i32
  %32 = icmp eq i32 %31, 10
  br i1 %32, label %33, label %38

33:                                               ; preds = %28
  %34 = load i64, ptr %7, align 8
  %35 = add i64 %34, 1
  store i64 %35, ptr %7, align 8
  %36 = load ptr, ptr %5, align 8
  %37 = getelementptr inbounds i8, ptr %36, i32 1
  store ptr %37, ptr %5, align 8
  br label %38

38:                                               ; preds = %33, %28
  br label %39

39:                                               ; preds = %38, %23
  %40 = load ptr, ptr %4, align 8
  %41 = getelementptr inbounds %"struct.nix::ParserLocation", ptr %40, i32 0, i32 2
  %42 = load i32, ptr %41, align 4
  %43 = add nsw i32 %42, 1
  store i32 %43, ptr %41, align 4
  %44 = load ptr, ptr %4, align 8
  %45 = getelementptr inbounds %"struct.nix::ParserLocation", ptr %44, i32 0, i32 3
  store i32 1, ptr %45, align 4
  br label %51

46:                                               ; preds = %23
  %47 = load ptr, ptr %4, align 8
  %48 = getelementptr inbounds %"struct.nix::ParserLocation", ptr %47, i32 0, i32 3
  %49 = load i32, ptr %48, align 4
  %50 = add nsw i32 %49, 1
  store i32 %50, ptr %48, align 4
  br label %51

51:                                               ; preds = %46, %39
  br label %52

52:                                               ; preds = %51
  %53 = load i64, ptr %7, align 8
  %54 = add i64 %53, 1
  store i64 %54, ptr %7, align 8
  br label %19, !llvm.loop !8

55:                                               ; preds = %19
  ret void
}