; Function Attrs: mustprogress nofree norecurse nosync nounwind memory(read, argmem: readwrite, inaccessiblemem: none) uwtable
define internal fastcc void @_ZN3nixL9adjustLocEPNS_14ParserLocationEPKcm(ptr nocapture noundef %0, ptr nocapture noundef readonly %1, i64 noundef %2) unnamed_addr #6 {
  %4 = getelementptr inbounds i8, ptr %0, i64 16
  %5 = getelementptr inbounds i8, ptr %0, i64 4
  %6 = getelementptr inbounds i8, ptr %0, i64 8
  %7 = getelementptr inbounds i8, ptr %0, i64 12
  %8 = load <4 x i32>, ptr %0, align 4
  store <4 x i32> %8, ptr %4, align 4
  %9 = extractelement <4 x i32> %8, i64 2
  store i32 %9, ptr %0, align 4
  %10 = extractelement <4 x i32> %8, i64 3
  store i32 %10, ptr %5, align 4
  %.not = icmp eq i64 %2, 0
  br i1 %.not, label %._crit_edge, label %.lr.ph

.lr.ph:                                           ; preds = %3, %25
  %11 = phi i32 [ %26, %25 ], [ %9, %3 ]
  %12 = phi i32 [ %storemerge, %25 ], [ %10, %3 ]
  %.018 = phi i64 [ %27, %25 ], [ 0, %3 ]
  %.01417 = phi ptr [ %.216, %25 ], [ %1, %3 ]
  %13 = getelementptr inbounds i8, ptr %.01417, i64 1
  %14 = load i8, ptr %.01417, align 1
  switch i8 %14, label %23 [
    i8 13, label %15
    i8 10, label %21
  ]

15:                                               ; preds = %.lr.ph
  %16 = load i8, ptr %13, align 1
  %17 = icmp eq i8 %16, 10
  br i1 %17, label %18, label %21

18:                                               ; preds = %15
  %19 = add nuw i64 %.018, 1
  %20 = getelementptr inbounds i8, ptr %.01417, i64 2
  br label %21

21:                                               ; preds = %15, %18, %.lr.ph
  %.115 = phi ptr [ %13, %.lr.ph ], [ %20, %18 ], [ %13, %15 ]
  %.1 = phi i64 [ %.018, %.lr.ph ], [ %19, %18 ], [ %.018, %15 ]
  %22 = add nsw i32 %11, 1
  store i32 %22, ptr %6, align 4
  br label %25

23:                                               ; preds = %.lr.ph
  %24 = add nsw i32 %12, 1
  br label %25

25:                                               ; preds = %21, %23
  %26 = phi i32 [ %22, %21 ], [ %11, %23 ]
  %storemerge = phi i32 [ 1, %21 ], [ %24, %23 ]
  %.216 = phi ptr [ %.115, %21 ], [ %13, %23 ]
  %.2 = phi i64 [ %.1, %21 ], [ %.018, %23 ]
  store i32 %storemerge, ptr %7, align 4
  %27 = add i64 %.2, 1
  %28 = icmp ult i64 %27, %2
  br i1 %28, label %.lr.ph, label %._crit_edge, !llvm.loop !7

._crit_edge:                                      ; preds = %25, %3
  ret void
}